target datalayout = "e-m:e-p270:32:32-p271:32:32-p272:64:64-i64:64-i128:128-f80:128-n8:16:32:64-S128"
target triple = "x86_64-pc-linux-gnu"

; Function Attrs: nounwind uwtable
define dso_local i32 @names_equal(ptr noundef %0, ptr noundef %1) #0 {
  %3 = alloca i32, align 4
  %4 = alloca ptr, align 8
  %5 = alloca ptr, align 8
  %6 = alloca i64, align 8
  %7 = alloca i32, align 4
  store ptr %0, ptr %4, align 8, !tbaa !28
  store ptr %1, ptr %5, align 8, !tbaa !28
  call void @llvm.lifetime.start.p0(i64 8, ptr %6) #13
  store i64 0, ptr %6, align 8, !tbaa !4
  br label %8

8:                                                ; preds = %35, %2
  %9 = load ptr, ptr %4, align 8, !tbaa !28
  %10 = load i64, ptr %6, align 8, !tbaa !4
  %11 = getelementptr inbounds nuw ptr, ptr %9, i64 %10
  %12 = load ptr, ptr %11, align 8, !tbaa !10
  %13 = icmp ne ptr %12, null
  br i1 %13, label %14, label %20

14:                                               ; preds = %8
  %15 = load ptr, ptr %5, align 8, !tbaa !28
  %16 = load i64, ptr %6, align 8, !tbaa !4
  %17 = getelementptr inbounds nuw ptr, ptr %15, i64 %16
  %18 = load ptr, ptr %17, align 8, !tbaa !10
  %19 = icmp ne ptr %18, null
  br label %20

20:                                               ; preds = %14, %8
  %21 = phi i1 [ false, %8 ], [ %19, %14 ]
  br i1 %21, label %22, label %38

22:                                               ; preds = %20
  %23 = load ptr, ptr %4, align 8, !tbaa !28
  %24 = load i64, ptr %6, align 8, !tbaa !4
  %25 = getelementptr inbounds nuw ptr, ptr %23, i64 %24
  %26 = load ptr, ptr %25, align 8, !tbaa !10
  %27 = load ptr, ptr %5, align 8, !tbaa !28
  %28 = load i64, ptr %6, align 8, !tbaa !4
  %29 = getelementptr inbounds nuw ptr, ptr %27, i64 %28
  %30 = load ptr, ptr %29, align 8, !tbaa !10
  %31 = call i32 @strcmp(ptr noundef %26, ptr noundef %30) #14
  %32 = icmp ne i32 %31, 0
  br i1 %32, label %33, label %34

33:                                               ; preds = %22
  store i32 0, ptr %3, align 4
  store i32 1, ptr %7, align 4
  br label %49

34:                                               ; preds = %22
  br label %35

35:                                               ; preds = %34
  %36 = load i64, ptr %6, align 8, !tbaa !4
  %37 = add i64 %36, 1
  store i64 %37, ptr %6, align 8, !tbaa !4
  br label %8, !llvm.loop !34

38:                                               ; preds = %20
  %39 = load ptr, ptr %4, align 8, !tbaa !28
  %40 = load i64, ptr %6, align 8, !tbaa !4
  %41 = getelementptr inbounds nuw ptr, ptr %39, i64 %40
  %42 = load ptr, ptr %41, align 8, !tbaa !10
  %43 = load ptr, ptr %5, align 8, !tbaa !28
  %44 = load i64, ptr %6, align 8, !tbaa !4
  %45 = getelementptr inbounds nuw ptr, ptr %43, i64 %44
  %46 = load ptr, ptr %45, align 8, !tbaa !10
  %47 = icmp eq ptr %42, %46
  %48 = zext i1 %47 to i32
  store i32 %48, ptr %3, align 4
  store i32 1, ptr %7, align 4
  br label %49

49:                                               ; preds = %38, %33
  call void @llvm.lifetime.end.p0(i64 8, ptr %6) #13
  %50 = load i32, ptr %3, align 4
  ret i32 %50
}