; Function Attrs: nofree nounwind memory(read, inaccessiblemem: none) uwtable
define dso_local range(i32 0, 2) i32 @names_equal(ptr noundef readonly captures(none) %0, ptr noundef readonly captures(none) %1) local_unnamed_addr #14 {
  %3 = load ptr, ptr %0, align 8, !tbaa !18
  %.not20 = icmp eq ptr %3, null
  br i1 %.not20, label %.critedge, label %.lr.ph

.lr.ph:                                           ; preds = %2, %9
  %4 = phi ptr [ %12, %9 ], [ %3, %2 ]
  %.021 = phi i64 [ %10, %9 ], [ 0, %2 ]
  %5 = getelementptr inbounds nuw ptr, ptr %1, i64 %.021
  %6 = load ptr, ptr %5, align 8, !tbaa !18
  %.not16 = icmp eq ptr %6, null
  br i1 %.not16, label %.critedge, label %7

7:                                                ; preds = %.lr.ph
  %8 = tail call i32 @strcmp(ptr noundef nonnull dereferenceable(1) %4, ptr noundef nonnull dereferenceable(1) %6) #23
  %.not17 = icmp eq i32 %8, 0
  br i1 %.not17, label %9, label %.loopexit

9:                                                ; preds = %7
  %10 = add i64 %.021, 1
  %11 = getelementptr inbounds nuw ptr, ptr %0, i64 %10
  %12 = load ptr, ptr %11, align 8, !tbaa !18
  %.not = icmp eq ptr %12, null
  br i1 %.not, label %.critedge, label %.lr.ph, !llvm.loop !24

.critedge:                                        ; preds = %.lr.ph, %9, %2
  %.0.lcssa = phi i64 [ 0, %2 ], [ %10, %9 ], [ %.021, %.lr.ph ]
  %.lcssa = phi ptr [ null, %2 ], [ null, %9 ], [ %4, %.lr.ph ]
  %13 = getelementptr inbounds nuw ptr, ptr %1, i64 %.0.lcssa
  %14 = load ptr, ptr %13, align 8, !tbaa !18
  %15 = icmp eq ptr %.lcssa, %14
  %16 = zext i1 %15 to i32
  br label %.loopexit

.loopexit:                                        ; preds = %7, %.critedge
  %.013 = phi i32 [ %16, %.critedge ], [ 0, %7 ]
  ret i32 %.013
}